target datalayout = "e-m:e-p270:32:32-p271:32:32-p272:64:64-i64:64-i128:128-f80:128-n8:16:32:64-S128"
target triple = "x86_64-pc-linux-gnu"

%"class.std::__cxx11::basic_string" = type { %"struct.std::__cxx11::basic_string<char>::_Alloc_hider", i64, %union.anon }
%"struct.std::__cxx11::basic_string<char>::_Alloc_hider" = type { ptr }
%union.anon = type { i64, [8 x i8] }
%"class.std::allocator.35" = type { i8 }

@_ZTISt9exception = external constant ptr
@.str.1 = private unnamed_addr constant [6 x i8] c"] at \00", align 1
@.str.3 = private unnamed_addr constant [3 x i8] c":\0A\00", align 1
@_ZTIN6casadi15CasadiExceptionE = linkonce_odr constant { ptr, ptr, ptr } { ptr getelementptr inbounds (ptr, ptr @_ZTVN10__cxxabiv120__si_class_type_infoE, i64 2), ptr @_ZTSN6casadi15CasadiExceptionE, ptr @_ZTISt9exception }, comdat, align 8
@.str.127 = private unnamed_addr constant [33 x i8] c"Error in Opti::instance_number [\00", align 1
@.str.128 = private unnamed_addr constant [121 x i8] c"generated/home/dtcxzyw/WorkSpace/Projects/compilers/llvm-opt-benchmark/bench/casadi/casadi/casadi/core/optistack.cpp:632\00", align 1

; Function Attrs: mustprogress uwtable
define linkonce_odr void @_ZStplIcSt11char_traitsIcESaIcEENSt7__cxx1112basic_stringIT_T0_T1_EEOS8_PKS5_(ptr dead_on_unwind noalias writable sret(%"class.std::__cxx11::basic_string") align 8 %0, ptr noundef nonnull align 8 dereferenceable(32) %1, ptr noundef %2) #4 comdat {
  %4 = alloca ptr, align 8
  %5 = alloca ptr, align 8
  %6 = alloca ptr, align 8
  store ptr %0, ptr %4, align 8
  store ptr %1, ptr %5, align 8
  store ptr %2, ptr %6, align 8
  %7 = load ptr, ptr %5, align 8
  %8 = load ptr, ptr %6, align 8
  %9 = call noundef nonnull align 8 dereferenceable(32) ptr @_ZNSt7__cxx1112basic_stringIcSt11char_traitsIcESaIcEE6appendEPKc(ptr noundef nonnull align 8 dereferenceable(32) %7, ptr noundef %8)
  call void @_ZNSt7__cxx1112basic_stringIcSt11char_traitsIcESaIcEEC1EOS4_(ptr noundef nonnull align 8 dereferenceable(32) %0, ptr noundef nonnull align 8 dereferenceable(32) %9) #3
  ret void
}

; Function Attrs: mustprogress uwtable
define linkonce_odr void @_ZStplIcSt11char_traitsIcESaIcEENSt7__cxx1112basic_stringIT_T0_T1_EEPKS5_OS8_(ptr dead_on_unwind noalias writable sret(%"class.std::__cxx11::basic_string") align 8 %0, ptr noundef %1, ptr noundef nonnull align 8 dereferenceable(32) %2) #4 comdat {
  %4 = alloca ptr, align 8
  %5 = alloca ptr, align 8
  %6 = alloca ptr, align 8
  store ptr %0, ptr %4, align 8
  store ptr %1, ptr %5, align 8
  store ptr %2, ptr %6, align 8
  %7 = load ptr, ptr %6, align 8
  %8 = load ptr, ptr %5, align 8
  %9 = call noundef nonnull align 8 dereferenceable(32) ptr @_ZNSt7__cxx1112basic_stringIcSt11char_traitsIcESaIcEE6insertEmPKc(ptr noundef nonnull align 8 dereferenceable(32) %7, i64 noundef 0, ptr noundef %8)
  call void @_ZNSt7__cxx1112basic_stringIcSt11char_traitsIcESaIcEEC1EOS4_(ptr noundef nonnull align 8 dereferenceable(32) %0, ptr noundef nonnull align 8 dereferenceable(32) %9) #3
  ret void
}

; Function Attrs: mustprogress uwtable
define noundef ptr @_ZNK6casadi4OptiptEv(ptr noundef nonnull align 8 dereferenceable(8) %0) #4 align 2 {
  %2 = alloca ptr, align 8
  store ptr %0, ptr %2, align 8
  %3 = load ptr, ptr %2, align 8
  %4 = call noundef ptr @_ZNK6casadi12SharedObjectptEv(ptr noundef nonnull align 8 dereferenceable(8) %3)
  ret ptr %4
}

; Function Attrs: mustprogress uwtable
define noundef i64 @_ZNK6casadi12OptiAdvanced15instance_numberEv(ptr noundef nonnull align 8 dereferenceable(11) %0) #4 align 2 personality ptr @__gxx_personality_v0 {
  %2 = alloca ptr, align 8
  %3 = alloca ptr, align 8
  %4 = alloca i32, align 4
  %5 = alloca ptr, align 8
  %6 = alloca %"class.std::__cxx11::basic_string", align 8
  %7 = alloca %"class.std::__cxx11::basic_string", align 8
  %8 = alloca %"class.std::__cxx11::basic_string", align 8
  %9 = alloca %"class.std::__cxx11::basic_string", align 8
  %10 = alloca %"class.std::__cxx11::basic_string", align 8
  %11 = alloca %"class.std::__cxx11::basic_string", align 8
  %12 = alloca %"class.std::__cxx11::basic_string", align 8
  %13 = alloca %"class.std::__cxx11::basic_string", align 8
  %14 = alloca %"class.std::allocator.35", align 1
  %15 = alloca %"class.std::__cxx11::basic_string", align 8
  %16 = alloca %"class.std::allocator.35", align 1
  %17 = alloca i1, align 1
  store ptr %0, ptr %2, align 8
  %18 = load ptr, ptr %2, align 8
  %19 = invoke noundef ptr @_ZNK6casadi4OptiptEv(ptr noundef nonnull align 8 dereferenceable(8) %18)
          to label %20 unwind label %23

20:                                               ; preds = %1
  %21 = invoke noundef i64 @_ZNK6casadi8OptiNode15instance_numberEv(ptr noundef nonnull align 8 dereferenceable(672) %19)
          to label %22 unwind label %23

22:                                               ; preds = %20
  ret i64 %21

23:                                               ; preds = %20, %1
  %24 = landingpad { ptr, i32 }
          catch ptr @_ZTISt9exception
  %25 = extractvalue { ptr, i32 } %24, 0
  store ptr %25, ptr %3, align 8
  %26 = extractvalue { ptr, i32 } %24, 1
  store i32 %26, ptr %4, align 4
  br label %27

27:                                               ; preds = %23
  %28 = load i32, ptr %4, align 4
  %29 = call i32 @llvm.eh.typeid.for(ptr @_ZTISt9exception) #3
  %30 = icmp eq i32 %28, %29
  br i1 %30, label %31, label %104

31:                                               ; preds = %27
  %32 = load ptr, ptr %3, align 8
  %33 = call ptr @__cxa_begin_catch(ptr %32) #3
  store ptr %33, ptr %5, align 8
  store i1 true, ptr %17, align 1
  %34 = call ptr @__cxa_allocate_exception(i64 40) #3
  invoke void @_ZNK6casadi12SharedObject10class_nameB5cxx11Ev(ptr dead_on_unwind writable sret(%"class.std::__cxx11::basic_string") align 8 %11, ptr noundef nonnull align 8 dereferenceable(8) %18)
          to label %35 unwind label %50

35:                                               ; preds = %31
  invoke void @_ZStplIcSt11char_traitsIcESaIcEENSt7__cxx1112basic_stringIT_T0_T1_EEPKS5_OS8_(ptr dead_on_unwind writable sret(%"class.std::__cxx11::basic_string") align 8 %10, ptr noundef @.str.127, ptr noundef nonnull align 8 dereferenceable(32) %11)
          to label %36 unwind label %54

36:                                               ; preds = %35
  invoke void @_ZStplIcSt11char_traitsIcESaIcEENSt7__cxx1112basic_stringIT_T0_T1_EEOS8_PKS5_(ptr dead_on_unwind writable sret(%"class.std::__cxx11::basic_string") align 8 %9, ptr noundef nonnull align 8 dereferenceable(32) %10, ptr noundef @.str.1)
          to label %37 unwind label %58

37:                                               ; preds = %36
  call void @_ZNSaIcEC1Ev(ptr noundef nonnull align 1 dereferenceable(1) %14) #3
  invoke void @_ZNSt7__cxx1112basic_stringIcSt11char_traitsIcESaIcEEC2IS3_EEPKcRKS3_(ptr noundef nonnull align 8 dereferenceable(32) %13, ptr noundef @.str.128, ptr noundef nonnull align 1 dereferenceable(1) %14)
          to label %38 unwind label %62

38:                                               ; preds = %37
  invoke void @_ZN6casadi9trim_pathERKNSt7__cxx1112basic_stringIcSt11char_traitsIcESaIcEEE(ptr dead_on_unwind writable sret(%"class.std::__cxx11::basic_string") align 8 %12, ptr noundef nonnull align 8 dereferenceable(32) %13)
          to label %39 unwind label %66

39:                                               ; preds = %38
  invoke void @_ZStplIcSt11char_traitsIcESaIcEENSt7__cxx1112basic_stringIT_T0_T1_EEOS8_S9_(ptr dead_on_unwind writable sret(%"class.std::__cxx11::basic_string") align 8 %8, ptr noundef nonnull align 8 dereferenceable(32) %9, ptr noundef nonnull align 8 dereferenceable(32) %12)
          to label %40 unwind label %70

40:                                               ; preds = %39
  invoke void @_ZStplIcSt11char_traitsIcESaIcEENSt7__cxx1112basic_stringIT_T0_T1_EEOS8_PKS5_(ptr dead_on_unwind writable sret(%"class.std::__cxx11::basic_string") align 8 %7, ptr noundef nonnull align 8 dereferenceable(32) %8, ptr noundef @.str.3)
          to label %41 unwind label %74

41:                                               ; preds = %40
  %42 = load ptr, ptr %5, align 8
  %43 = load ptr, ptr %42, align 8
  %44 = getelementptr inbounds ptr, ptr %43, i64 2
  %45 = load ptr, ptr %44, align 8
  %46 = call noundef ptr %45(ptr noundef nonnull align 8 dereferenceable(8) %42) #3
  call void @_ZNSaIcEC1Ev(ptr noundef nonnull align 1 dereferenceable(1) %16) #3
  invoke void @_ZNSt7__cxx1112basic_stringIcSt11char_traitsIcESaIcEEC2IS3_EEPKcRKS3_(ptr noundef nonnull align 8 dereferenceable(32) %15, ptr noundef %46, ptr noundef nonnull align 1 dereferenceable(1) %16)
          to label %47 unwind label %78

47:                                               ; preds = %41
  invoke void @_ZStplIcSt11char_traitsIcESaIcEENSt7__cxx1112basic_stringIT_T0_T1_EEOS8_S9_(ptr dead_on_unwind writable sret(%"class.std::__cxx11::basic_string") align 8 %6, ptr noundef nonnull align 8 dereferenceable(32) %7, ptr noundef nonnull align 8 dereferenceable(32) %15)
          to label %48 unwind label %82

48:                                               ; preds = %47
  invoke void @_ZN6casadi15CasadiExceptionC2ERKNSt7__cxx1112basic_stringIcSt11char_traitsIcESaIcEEE(ptr noundef nonnull align 8 dereferenceable(40) %34, ptr noundef nonnull align 8 dereferenceable(32) %6)
          to label %49 unwind label %86

49:                                               ; preds = %48
  store i1 false, ptr %17, align 1
  invoke void @__cxa_throw(ptr %34, ptr @_ZTIN6casadi15CasadiExceptionE, ptr @_ZN6casadi15CasadiExceptionD2Ev) #15
          to label %112 unwind label %86

50:                                               ; preds = %31
  %51 = landingpad { ptr, i32 }
          cleanup
  %52 = extractvalue { ptr, i32 } %51, 0
  store ptr %52, ptr %3, align 8
  %53 = extractvalue { ptr, i32 } %51, 1
  store i32 %53, ptr %4, align 4
  br label %98

54:                                               ; preds = %35
  %55 = landingpad { ptr, i32 }
          cleanup
  %56 = extractvalue { ptr, i32 } %55, 0
  store ptr %56, ptr %3, align 8
  %57 = extractvalue { ptr, i32 } %55, 1
  store i32 %57, ptr %4, align 4
  br label %97

58:                                               ; preds = %36
  %59 = landingpad { ptr, i32 }
          cleanup
  %60 = extractvalue { ptr, i32 } %59, 0
  store ptr %60, ptr %3, align 8
  %61 = extractvalue { ptr, i32 } %59, 1
  store i32 %61, ptr %4, align 4
  br label %96

62:                                               ; preds = %37
  %63 = landingpad { ptr, i32 }
          cleanup
  %64 = extractvalue { ptr, i32 } %63, 0
  store ptr %64, ptr %3, align 8
  %65 = extractvalue { ptr, i32 } %63, 1
  store i32 %65, ptr %4, align 4
  br label %95

66:                                               ; preds = %38
  %67 = landingpad { ptr, i32 }
          cleanup
  %68 = extractvalue { ptr, i32 } %67, 0
  store ptr %68, ptr %3, align 8
  %69 = extractvalue { ptr, i32 } %67, 1
  store i32 %69, ptr %4, align 4
  br label %94

70:                                               ; preds = %39
  %71 = landingpad { ptr, i32 }
          cleanup
  %72 = extractvalue { ptr, i32 } %71, 0
  store ptr %72, ptr %3, align 8
  %73 = extractvalue { ptr, i32 } %71, 1
  store i32 %73, ptr %4, align 4
  br label %93

74:                                               ; preds = %40
  %75 = landingpad { ptr, i32 }
          cleanup
  %76 = extractvalue { ptr, i32 } %75, 0
  store ptr %76, ptr %3, align 8
  %77 = extractvalue { ptr, i32 } %75, 1
  store i32 %77, ptr %4, align 4
  br label %92

78:                                               ; preds = %41
  %79 = landingpad { ptr, i32 }
          cleanup
  %80 = extractvalue { ptr, i32 } %79, 0
  store ptr %80, ptr %3, align 8
  %81 = extractvalue { ptr, i32 } %79, 1
  store i32 %81, ptr %4, align 4
  br label %91

82:                                               ; preds = %47
  %83 = landingpad { ptr, i32 }
          cleanup
  %84 = extractvalue { ptr, i32 } %83, 0
  store ptr %84, ptr %3, align 8
  %85 = extractvalue { ptr, i32 } %83, 1
  store i32 %85, ptr %4, align 4
  br label %90

86:                                               ; preds = %49, %48
  %87 = landingpad { ptr, i32 }
          cleanup
  %88 = extractvalue { ptr, i32 } %87, 0
  store ptr %88, ptr %3, align 8
  %89 = extractvalue { ptr, i32 } %87, 1
  store i32 %89, ptr %4, align 4
  call void @_ZNSt7__cxx1112basic_stringIcSt11char_traitsIcESaIcEED1Ev(ptr noundef nonnull align 8 dereferenceable(32) %6) #3
  br label %90

90:                                               ; preds = %86, %82
  call void @_ZNSt7__cxx1112basic_stringIcSt11char_traitsIcESaIcEED1Ev(ptr noundef nonnull align 8 dereferenceable(32) %15) #3
  br label %91

91:                                               ; preds = %90, %78
  call void @_ZNSaIcED1Ev(ptr noundef nonnull align 1 dereferenceable(1) %16) #3
  call void @_ZNSt7__cxx1112basic_stringIcSt11char_traitsIcESaIcEED1Ev(ptr noundef nonnull align 8 dereferenceable(32) %7) #3
  br label %92

92:                                               ; preds = %91, %74
  call void @_ZNSt7__cxx1112basic_stringIcSt11char_traitsIcESaIcEED1Ev(ptr noundef nonnull align 8 dereferenceable(32) %8) #3
  br label %93

93:                                               ; preds = %92, %70
  call void @_ZNSt7__cxx1112basic_stringIcSt11char_traitsIcESaIcEED1Ev(ptr noundef nonnull align 8 dereferenceable(32) %12) #3
  br label %94

94:                                               ; preds = %93, %66
  call void @_ZNSt7__cxx1112basic_stringIcSt11char_traitsIcESaIcEED1Ev(ptr noundef nonnull align 8 dereferenceable(32) %13) #3
  br label %95

95:                                               ; preds = %94, %62
  call void @_ZNSaIcED1Ev(ptr noundef nonnull align 1 dereferenceable(1) %14) #3
  call void @_ZNSt7__cxx1112basic_stringIcSt11char_traitsIcESaIcEED1Ev(ptr noundef nonnull align 8 dereferenceable(32) %9) #3
  br label %96

96:                                               ; preds = %95, %58
  call void @_ZNSt7__cxx1112basic_stringIcSt11char_traitsIcESaIcEED1Ev(ptr noundef nonnull align 8 dereferenceable(32) %10) #3
  br label %97

97:                                               ; preds = %96, %54
  call void @_ZNSt7__cxx1112basic_stringIcSt11char_traitsIcESaIcEED1Ev(ptr noundef nonnull align 8 dereferenceable(32) %11) #3
  br label %98

98:                                               ; preds = %97, %50
  %99 = load i1, ptr %17, align 1
  br i1 %99, label %100, label %101

100:                                              ; preds = %98
  call void @__cxa_free_exception(ptr %34) #3
  br label %101

101:                                              ; preds = %100, %98
  invoke void @__cxa_end_catch()
          to label %102 unwind label %109

102:                                              ; preds = %101
  br label %104

103:                                              ; No predecessors!
  call void @llvm.trap()
  unreachable

104:                                              ; preds = %102, %27
  %105 = load ptr, ptr %3, align 8
  %106 = load i32, ptr %4, align 4
  %107 = insertvalue { ptr, i32 } poison, ptr %105, 0
  %108 = insertvalue { ptr, i32 } %107, i32 %106, 1
  resume { ptr, i32 } %108

109:                                              ; preds = %101
  %110 = landingpad { ptr, i32 }
          catch ptr null
  %111 = extractvalue { ptr, i32 } %110, 0
  call void @__clang_call_terminate(ptr %111) #16
  unreachable

112:                                              ; preds = %49
  unreachable
}