; Function Attrs: mustprogress uwtable
define noundef i64 @_ZNK6casadi12OptiAdvanced15instance_numberEv(ptr noundef nonnull align 8 dereferenceable(11) %0) local_unnamed_addr #3 align 2 personality ptr @__gxx_personality_v0 {
  %2 = alloca %"class.std::__cxx11::basic_string", align 8
  %3 = alloca %"class.std::__cxx11::basic_string", align 8
  %4 = alloca %"class.std::__cxx11::basic_string", align 8
  %5 = alloca %"class.std::__cxx11::basic_string", align 8
  %6 = alloca %"class.std::__cxx11::basic_string", align 8
  %7 = alloca %"class.std::__cxx11::basic_string", align 8
  %8 = alloca %"class.std::__cxx11::basic_string", align 8
  %9 = alloca %"class.std::__cxx11::basic_string", align 8
  %10 = alloca %"class.std::allocator.35", align 1
  %11 = alloca %"class.std::__cxx11::basic_string", align 8
  %12 = alloca %"class.std::allocator.35", align 1
  %13 = invoke noundef ptr @_ZNK6casadi12SharedObjectptEv(ptr noundef nonnull align 8 dereferenceable(8) %0)
          to label %_ZNK6casadi4OptiptEv.exit unwind label %16

_ZNK6casadi4OptiptEv.exit:                        ; preds = %1
  %14 = invoke noundef i64 @_ZNK6casadi8OptiNode15instance_numberEv(ptr noundef nonnull align 8 dereferenceable(672) %13)
          to label %15 unwind label %16

15:                                               ; preds = %_ZNK6casadi4OptiptEv.exit
  ret i64 %14

16:                                               ; preds = %1, %_ZNK6casadi4OptiptEv.exit
  %17 = landingpad { ptr, i32 }
          catch ptr @_ZTISt9exception
  %18 = extractvalue { ptr, i32 } %17, 1
  %19 = tail call i32 @llvm.eh.typeid.for(ptr nonnull @_ZTISt9exception) #17
  %20 = icmp eq i32 %18, %19
  br i1 %20, label %21, label %69

21:                                               ; preds = %16
  %22 = extractvalue { ptr, i32 } %17, 0
  %23 = tail call ptr @__cxa_begin_catch(ptr %22) #17
  %24 = tail call ptr @__cxa_allocate_exception(i64 40) #17
  invoke void @_ZNK6casadi12SharedObject10class_nameB5cxx11Ev(ptr dead_on_unwind nonnull writable sret(%"class.std::__cxx11::basic_string") align 8 %7, ptr noundef nonnull align 8 dereferenceable(8) %0)
          to label %25 unwind label %.thread

25:                                               ; preds = %21
  %26 = invoke noundef nonnull align 8 dereferenceable(32) ptr @_ZNSt7__cxx1112basic_stringIcSt11char_traitsIcESaIcEE6insertEmPKc(ptr noundef nonnull align 8 dereferenceable(32) %7, i64 noundef 0, ptr noundef nonnull @.str.127)
          to label %27 unwind label %.thread41

27:                                               ; preds = %25
  call void @_ZNSt7__cxx1112basic_stringIcSt11char_traitsIcESaIcEEC1EOS4_(ptr noundef nonnull align 8 dereferenceable(32) %6, ptr noundef nonnull align 8 dereferenceable(32) %26) #17
  %28 = invoke noundef nonnull align 8 dereferenceable(32) ptr @_ZNSt7__cxx1112basic_stringIcSt11char_traitsIcESaIcEE6appendEPKc(ptr noundef nonnull align 8 dereferenceable(32) %6, ptr noundef nonnull @.str.1)
          to label %29 unwind label %44

29:                                               ; preds = %27
  call void @_ZNSt7__cxx1112basic_stringIcSt11char_traitsIcESaIcEEC1EOS4_(ptr noundef nonnull align 8 dereferenceable(32) %5, ptr noundef nonnull align 8 dereferenceable(32) %28) #17
  call void @_ZNSaIcEC1Ev(ptr noundef nonnull align 1 dereferenceable(1) %10) #17
  invoke void @_ZNSt7__cxx1112basic_stringIcSt11char_traitsIcESaIcEEC2IS3_EEPKcRKS3_(ptr noundef nonnull align 8 dereferenceable(32) %9, ptr noundef nonnull @.str.128, ptr noundef nonnull align 1 dereferenceable(1) %10)
          to label %30 unwind label %46

30:                                               ; preds = %29
  invoke void @_ZN6casadi9trim_pathERKNSt7__cxx1112basic_stringIcSt11char_traitsIcESaIcEEE(ptr dead_on_unwind nonnull writable sret(%"class.std::__cxx11::basic_string") align 8 %8, ptr noundef nonnull align 8 dereferenceable(32) %9)
          to label %31 unwind label %48

31:                                               ; preds = %30
  invoke void @_ZStplIcSt11char_traitsIcESaIcEENSt7__cxx1112basic_stringIT_T0_T1_EEOS8_S9_(ptr dead_on_unwind nonnull writable sret(%"class.std::__cxx11::basic_string") align 8 %4, ptr noundef nonnull align 8 dereferenceable(32) %5, ptr noundef nonnull align 8 dereferenceable(32) %8)
          to label %32 unwind label %50

32:                                               ; preds = %31
  %33 = invoke noundef nonnull align 8 dereferenceable(32) ptr @_ZNSt7__cxx1112basic_stringIcSt11char_traitsIcESaIcEE6appendEPKc(ptr noundef nonnull align 8 dereferenceable(32) %4, ptr noundef nonnull @.str.3)
          to label %34 unwind label %52

34:                                               ; preds = %32
  call void @_ZNSt7__cxx1112basic_stringIcSt11char_traitsIcESaIcEEC1EOS4_(ptr noundef nonnull align 8 dereferenceable(32) %3, ptr noundef nonnull align 8 dereferenceable(32) %33) #17
  %35 = load ptr, ptr %23, align 8
  %36 = getelementptr inbounds i8, ptr %35, i64 16
  %37 = load ptr, ptr %36, align 8
  %38 = call noundef ptr %37(ptr noundef nonnull align 8 dereferenceable(8) %23) #17
  call void @_ZNSaIcEC1Ev(ptr noundef nonnull align 1 dereferenceable(1) %12) #17
  invoke void @_ZNSt7__cxx1112basic_stringIcSt11char_traitsIcESaIcEEC2IS3_EEPKcRKS3_(ptr noundef nonnull align 8 dereferenceable(32) %11, ptr noundef %38, ptr noundef nonnull align 1 dereferenceable(1) %12)
          to label %39 unwind label %54

39:                                               ; preds = %34
  invoke void @_ZStplIcSt11char_traitsIcESaIcEENSt7__cxx1112basic_stringIT_T0_T1_EEOS8_S9_(ptr dead_on_unwind nonnull writable sret(%"class.std::__cxx11::basic_string") align 8 %2, ptr noundef nonnull align 8 dereferenceable(32) %3, ptr noundef nonnull align 8 dereferenceable(32) %11)
          to label %40 unwind label %56

40:                                               ; preds = %39
  invoke void @_ZN6casadi15CasadiExceptionC2ERKNSt7__cxx1112basic_stringIcSt11char_traitsIcESaIcEEE(ptr noundef nonnull align 8 dereferenceable(40) %24, ptr noundef nonnull align 8 dereferenceable(32) %2)
          to label %41 unwind label %58

41:                                               ; preds = %40
  invoke void @__cxa_throw(ptr nonnull %24, ptr nonnull @_ZTIN6casadi15CasadiExceptionE, ptr nonnull @_ZN6casadi15CasadiExceptionD2Ev) #18
          to label %73 unwind label %58

.thread:                                          ; preds = %21
  %42 = landingpad { ptr, i32 }
          cleanup
  br label %67

.thread41:                                        ; preds = %25
  %43 = landingpad { ptr, i32 }
          cleanup
  call void @_ZNSt7__cxx1112basic_stringIcSt11char_traitsIcESaIcEED1Ev(ptr noundef nonnull align 8 dereferenceable(32) %7) #17
  br label %67

44:                                               ; preds = %27
  %45 = landingpad { ptr, i32 }
          cleanup
  br label %66

46:                                               ; preds = %29
  %47 = landingpad { ptr, i32 }
          cleanup
  br label %65

48:                                               ; preds = %30
  %49 = landingpad { ptr, i32 }
          cleanup
  br label %64

50:                                               ; preds = %31
  %51 = landingpad { ptr, i32 }
          cleanup
  br label %63

52:                                               ; preds = %32
  %53 = landingpad { ptr, i32 }
          cleanup
  br label %62

54:                                               ; preds = %34
  %55 = landingpad { ptr, i32 }
          cleanup
  br label %61

56:                                               ; preds = %39
  %57 = landingpad { ptr, i32 }
          cleanup
  br label %60

58:                                               ; preds = %41, %40
  %.0 = phi i1 [ false, %41 ], [ true, %40 ]
  %59 = landingpad { ptr, i32 }
          cleanup
  call void @_ZNSt7__cxx1112basic_stringIcSt11char_traitsIcESaIcEED1Ev(ptr noundef nonnull align 8 dereferenceable(32) %2) #17
  br label %60

60:                                               ; preds = %58, %56
  %.pn = phi { ptr, i32 } [ %59, %58 ], [ %57, %56 ]
  %.1 = phi i1 [ %.0, %58 ], [ true, %56 ]
  call void @_ZNSt7__cxx1112basic_stringIcSt11char_traitsIcESaIcEED1Ev(ptr noundef nonnull align 8 dereferenceable(32) %11) #17
  br label %61

61:                                               ; preds = %60, %54
  %.pn.pn = phi { ptr, i32 } [ %.pn, %60 ], [ %55, %54 ]
  %.2 = phi i1 [ %.1, %60 ], [ true, %54 ]
  call void @_ZNSaIcED1Ev(ptr noundef nonnull align 1 dereferenceable(1) %12) #17
  call void @_ZNSt7__cxx1112basic_stringIcSt11char_traitsIcESaIcEED1Ev(ptr noundef nonnull align 8 dereferenceable(32) %3) #17
  br label %62

62:                                               ; preds = %61, %52
  %.pn.pn.pn = phi { ptr, i32 } [ %.pn.pn, %61 ], [ %53, %52 ]
  %.3 = phi i1 [ %.2, %61 ], [ true, %52 ]
  call void @_ZNSt7__cxx1112basic_stringIcSt11char_traitsIcESaIcEED1Ev(ptr noundef nonnull align 8 dereferenceable(32) %4) #17
  br label %63

63:                                               ; preds = %62, %50
  %.pn.pn.pn.pn = phi { ptr, i32 } [ %.pn.pn.pn, %62 ], [ %51, %50 ]
  %.4 = phi i1 [ %.3, %62 ], [ true, %50 ]
  call void @_ZNSt7__cxx1112basic_stringIcSt11char_traitsIcESaIcEED1Ev(ptr noundef nonnull align 8 dereferenceable(32) %8) #17
  br label %64

64:                                               ; preds = %63, %48
  %.pn.pn.pn.pn.pn = phi { ptr, i32 } [ %.pn.pn.pn.pn, %63 ], [ %49, %48 ]
  %.5 = phi i1 [ %.4, %63 ], [ true, %48 ]
  call void @_ZNSt7__cxx1112basic_stringIcSt11char_traitsIcESaIcEED1Ev(ptr noundef nonnull align 8 dereferenceable(32) %9) #17
  br label %65

65:                                               ; preds = %64, %46
  %.pn.pn.pn.pn.pn.pn = phi { ptr, i32 } [ %.pn.pn.pn.pn.pn, %64 ], [ %47, %46 ]
  %.6 = phi i1 [ %.5, %64 ], [ true, %46 ]
  call void @_ZNSaIcED1Ev(ptr noundef nonnull align 1 dereferenceable(1) %10) #17
  call void @_ZNSt7__cxx1112basic_stringIcSt11char_traitsIcESaIcEED1Ev(ptr noundef nonnull align 8 dereferenceable(32) %5) #17
  br label %66

66:                                               ; preds = %44, %65
  %.pn.pn.pn.pn.pn.pn.pn = phi { ptr, i32 } [ %.pn.pn.pn.pn.pn.pn, %65 ], [ %45, %44 ]
  %.7 = phi i1 [ %.6, %65 ], [ true, %44 ]
  call void @_ZNSt7__cxx1112basic_stringIcSt11char_traitsIcESaIcEED1Ev(ptr noundef nonnull align 8 dereferenceable(32) %6) #17
  call void @_ZNSt7__cxx1112basic_stringIcSt11char_traitsIcESaIcEED1Ev(ptr noundef nonnull align 8 dereferenceable(32) %7) #17
  br i1 %.7, label %67, label %68

67:                                               ; preds = %.thread41, %.thread, %66
  %.pn.pn.pn.pn.pn.pn.pn.pn.pn40 = phi { ptr, i32 } [ %42, %.thread ], [ %.pn.pn.pn.pn.pn.pn.pn, %66 ], [ %43, %.thread41 ]
  call void @__cxa_free_exception(ptr %24) #17
  br label %68

68:                                               ; preds = %67, %66
  %.pn.pn.pn.pn.pn.pn.pn.pn.pn39 = phi { ptr, i32 } [ %.pn.pn.pn.pn.pn.pn.pn.pn.pn40, %67 ], [ %.pn.pn.pn.pn.pn.pn.pn, %66 ]
  invoke void @__cxa_end_catch()
          to label %69 unwind label %70

69:                                               ; preds = %68, %16
  %.merged = phi { ptr, i32 } [ %.pn.pn.pn.pn.pn.pn.pn.pn.pn39, %68 ], [ %17, %16 ]
  resume { ptr, i32 } %.merged

70:                                               ; preds = %68
  %71 = landingpad { ptr, i32 }
          catch ptr null
  %72 = extractvalue { ptr, i32 } %71, 0
  call void @__clang_call_terminate(ptr %72) #19
  unreachable

73:                                               ; preds = %41
  unreachable
}